; Function Attrs: mustprogress nofree norecurse nosync nounwind willreturn memory(argmem: read) uwtable
define internal noundef float @_ZL8icvDistCPKfS0_Pv(ptr noundef readonly captures(none) %0, ptr noundef readonly captures(none) %1, ptr noundef %2) #5 {
  %4 = ptrtoint ptr %2 to i64
  %5 = trunc i64 %4 to i32
  %6 = icmp sgt i32 %5, 0
  br i1 %6, label %.lr.ph.preheader, label %._crit_edge

.lr.ph.preheader:                                 ; preds = %3
  %wide.trip.count = and i64 %4, 2147483647
  br label %.lr.ph

.lr.ph:                                           ; preds = %.lr.ph.preheader, %.lr.ph
  %indvars.iv = phi i64 [ 0, %.lr.ph.preheader ], [ %indvars.iv.next, %.lr.ph ]
  %.01113 = phi double [ 0.000000e+00, %.lr.ph.preheader ], [ %.1, %.lr.ph ]
  %7 = getelementptr inbounds nuw float, ptr %0, i64 %indvars.iv
  %8 = load float, ptr %7, align 4, !tbaa !21
  %9 = getelementptr inbounds nuw float, ptr %1, i64 %indvars.iv
  %10 = load float, ptr %9, align 4, !tbaa !21
  %11 = fsub float %8, %10
  %12 = tail call noundef float @llvm.fabs.f32(float %11)
  %13 = fpext float %12 to double
  %14 = fcmp olt double %.01113, %13
  %.1 = select i1 %14, double %13, double %.01113
  %indvars.iv.next = add nuw nsw i64 %indvars.iv, 1
  %exitcond.not = icmp eq i64 %indvars.iv.next, %wide.trip.count
  br i1 %exitcond.not, label %._crit_edge.loopexit, label %.lr.ph, !llvm.loop !88

._crit_edge.loopexit:                             ; preds = %.lr.ph
  %15 = fptrunc double %.1 to float
  br label %._crit_edge

._crit_edge:                                      ; preds = %._crit_edge.loopexit, %3
  %.011.lcssa = phi float [ 0.000000e+00, %3 ], [ %15, %._crit_edge.loopexit ]
  ret float %.011.lcssa
}